; Function Attrs: nounwind sspstrong uwtable
define internal fastcc ptr @qobject_input_get_keyval(ptr noundef captures(none) %qiv, ptr noundef %name, ptr noundef %errp) unnamed_addr #0 {
entry:
  %call.i = tail call fastcc ptr @qobject_input_try_get_object(ptr noundef %qiv, ptr noundef %name, i1 noundef zeroext true)
  %tobool1.not.i = icmp eq ptr %call.i, null
  br i1 %tobool1.not.i, label %qobject_input_get_object.exit.thread, label %land.lhs.true.i

qobject_input_get_object.exit.thread:             ; preds = %entry
  %call.i.i = tail call fastcc ptr @full_name_nth(ptr noundef %qiv, ptr noundef %name, i32 noundef 0)
  tail call void (ptr, ptr, i32, ptr, ptr, ...) @error_setg_internal(ptr noundef %errp, ptr noundef nonnull @.str.1, i32 noundef 171, ptr noundef nonnull @__func__.qobject_input_get_object, ptr noundef nonnull @.str.5, ptr noundef %call.i.i) #8
  br label %return

land.lhs.true.i:                                  ; preds = %entry
  %obj.val.i = load i32, ptr %call.i, align 8
  %0 = add i32 %obj.val.i, -1
  %or.cond.i.i = icmp ult i32 %0, 6
  br i1 %or.cond.i.i, label %qobject_type.exit.i, label %if.else.i.i

if.else.i.i:                                      ; preds = %land.lhs.true.i
  tail call void @__assert_fail(ptr noundef nonnull @.str.12, ptr noundef nonnull @.str.13, i32 noundef 126, ptr noundef nonnull @__PRETTY_FUNCTION__.qobject_type) #7
  unreachable

qobject_type.exit.i:                              ; preds = %land.lhs.true.i
  %cmp.i = icmp eq i32 %obj.val.i, 3
  br i1 %cmp.i, label %if.end7, label %qobject_type.exit

qobject_type.exit:                                ; preds = %qobject_type.exit.i
  %1 = and i32 %obj.val.i, 6
  %switch = icmp eq i32 %1, 4
  %call.i11 = tail call fastcc ptr @full_name_nth(ptr noundef %qiv, ptr noundef %name, i32 noundef 0)
  br i1 %switch, label %sw.bb, label %sw.default

sw.bb:                                            ; preds = %qobject_type.exit
  tail call void (ptr, ptr, i32, ptr, ptr, ...) @error_setg_internal(ptr noundef %errp, ptr noundef nonnull @.str.1, i32 noundef 194, ptr noundef nonnull @__func__.qobject_input_get_keyval, ptr noundef nonnull @.str.36, ptr noundef %call.i11) #8
  br label %return

sw.default:                                       ; preds = %qobject_type.exit
  tail call void (ptr, ptr, i32, ptr, ptr, ...) @error_setg_internal(ptr noundef %errp, ptr noundef nonnull @.str.1, i32 noundef 199, ptr noundef nonnull @__func__.qobject_input_get_keyval, ptr noundef nonnull @.str.37, ptr noundef %call.i11) #8
  br label %return

if.end7:                                          ; preds = %qobject_type.exit.i
  %call8 = tail call ptr @qstring_get_str(ptr noundef nonnull %call.i) #8
  br label %return

return:                                           ; preds = %qobject_input_get_object.exit.thread, %if.end7, %sw.default, %sw.bb
  %retval.0 = phi ptr [ %call8, %if.end7 ], [ null, %sw.default ], [ null, %sw.bb ], [ null, %qobject_input_get_object.exit.thread ]
  ret ptr %retval.0
}